target datalayout = "e-m:e-p270:32:32-p271:32:32-p272:64:64-i64:64-i128:128-f80:128-n8:16:32:64-S128"
target triple = "x86_64-pc-linux-gnu"

%struct.SurfaceDataRasInfo = type { %struct.SurfaceDataBounds, ptr, i32, i32, i32, i32, ptr, ptr, ptr, ptr, ptr, ptr, i32, %union.anon.0 }
%struct.SurfaceDataBounds = type { i32, i32, i32, i32 }
%union.anon.0 = type { ptr, [56 x i8] }
%struct.ImageRef = type { ptr, ptr, i32, i32, i32, i32, i32, i32 }

@mul8table = external global [256 x [256 x i8]], align 16

; Function Attrs: nounwind uwtable
define hidden void @IntRgbDrawGlyphListAA(ptr noundef %0, ptr noundef %1, i32 noundef %2, i32 noundef %3, i32 noundef %4, i32 noundef %5, i32 noundef %6, i32 noundef %7, i32 noundef %8, ptr noundef %9, ptr noundef %10) #1 {
  %12 = alloca ptr, align 8
  %13 = alloca ptr, align 8
  %14 = alloca i32, align 4
  %15 = alloca i32, align 4
  %16 = alloca i32, align 4
  %17 = alloca i32, align 4
  %18 = alloca i32, align 4
  %19 = alloca i32, align 4
  %20 = alloca i32, align 4
  %21 = alloca ptr, align 8
  %22 = alloca ptr, align 8
  %23 = alloca i32, align 4
  %24 = alloca i32, align 4
  %25 = alloca ptr, align 8
  %26 = alloca i32, align 4
  %27 = alloca i32, align 4
  %28 = alloca i32, align 4
  %29 = alloca i32, align 4
  %30 = alloca ptr, align 8
  %31 = alloca i32, align 4
  %32 = alloca i32, align 4
  %33 = alloca i32, align 4
  %34 = alloca i32, align 4
  %35 = alloca i32, align 4
  %36 = alloca i32, align 4
  %37 = alloca i32, align 4
  %38 = alloca i32, align 4
  %39 = alloca i32, align 4
  %40 = alloca i32, align 4
  %41 = alloca i32, align 4
  %42 = alloca i32, align 4
  %43 = alloca i32, align 4
  %44 = alloca i32, align 4
  store ptr %0, ptr %12, align 8
  store ptr %1, ptr %13, align 8
  store i32 %2, ptr %14, align 4
  store i32 %3, ptr %15, align 4
  store i32 %4, ptr %16, align 4
  store i32 %5, ptr %17, align 4
  store i32 %6, ptr %18, align 4
  store i32 %7, ptr %19, align 4
  store i32 %8, ptr %20, align 4
  store ptr %9, ptr %21, align 8
  store ptr %10, ptr %22, align 8
  %45 = load ptr, ptr %12, align 8
  %46 = getelementptr inbounds %struct.SurfaceDataRasInfo, ptr %45, i32 0, i32 4
  %47 = load i32, ptr %46, align 8
  store i32 %47, ptr %24, align 4
  br label %48

48:                                               ; preds = %11
  %49 = load i32, ptr %16, align 4
  %50 = and i32 %49, 255
  store i32 %50, ptr %29, align 4
  %51 = load i32, ptr %16, align 4
  %52 = ashr i32 %51, 8
  %53 = and i32 %52, 255
  store i32 %53, ptr %28, align 4
  %54 = load i32, ptr %16, align 4
  %55 = ashr i32 %54, 16
  %56 = and i32 %55, 255
  store i32 %56, ptr %27, align 4
  %57 = load i32, ptr %16, align 4
  %58 = ashr i32 %57, 24
  %59 = and i32 %58, 255
  store i32 %59, ptr %26, align 4
  br label %60

60:                                               ; preds = %48
  store i32 0, ptr %23, align 4
  br label %61

61:                                               ; preds = %309, %60
  %62 = load i32, ptr %23, align 4
  %63 = load i32, ptr %14, align 4
  %64 = icmp slt i32 %62, %63
  br i1 %64, label %65, label %312

65:                                               ; preds = %61
  %66 = load ptr, ptr %13, align 8
  %67 = load i32, ptr %23, align 4
  %68 = sext i32 %67 to i64
  %69 = getelementptr inbounds %struct.ImageRef, ptr %66, i64 %68
  %70 = getelementptr inbounds %struct.ImageRef, ptr %69, i32 0, i32 1
  %71 = load ptr, ptr %70, align 8
  store ptr %71, ptr %30, align 8
  %72 = load ptr, ptr %30, align 8
  %73 = icmp ne ptr %72, null
  br i1 %73, label %75, label %74

74:                                               ; preds = %65
  br label %309

75:                                               ; preds = %65
  %76 = load ptr, ptr %13, align 8
  %77 = load i32, ptr %23, align 4
  %78 = sext i32 %77 to i64
  %79 = getelementptr inbounds %struct.ImageRef, ptr %76, i64 %78
  %80 = getelementptr inbounds %struct.ImageRef, ptr %79, i32 0, i32 2
  %81 = load i32, ptr %80, align 8
  store i32 %81, ptr %31, align 4
  %82 = load ptr, ptr %13, align 8
  %83 = load i32, ptr %23, align 4
  %84 = sext i32 %83 to i64
  %85 = getelementptr inbounds %struct.ImageRef, ptr %82, i64 %84
  %86 = getelementptr inbounds %struct.ImageRef, ptr %85, i32 0, i32 6
  %87 = load i32, ptr %86, align 8
  store i32 %87, ptr %32, align 4
  %88 = load ptr, ptr %13, align 8
  %89 = load i32, ptr %23, align 4
  %90 = sext i32 %89 to i64
  %91 = getelementptr inbounds %struct.ImageRef, ptr %88, i64 %90
  %92 = getelementptr inbounds %struct.ImageRef, ptr %91, i32 0, i32 7
  %93 = load i32, ptr %92, align 4
  store i32 %93, ptr %33, align 4
  %94 = load ptr, ptr %13, align 8
  %95 = load i32, ptr %23, align 4
  %96 = sext i32 %95 to i64
  %97 = getelementptr inbounds %struct.ImageRef, ptr %94, i64 %96
  %98 = getelementptr inbounds %struct.ImageRef, ptr %97, i32 0, i32 4
  %99 = load i32, ptr %98, align 8
  store i32 %99, ptr %34, align 4
  %100 = load ptr, ptr %13, align 8
  %101 = load i32, ptr %23, align 4
  %102 = sext i32 %101 to i64
  %103 = getelementptr inbounds %struct.ImageRef, ptr %100, i64 %102
  %104 = getelementptr inbounds %struct.ImageRef, ptr %103, i32 0, i32 5
  %105 = load i32, ptr %104, align 4
  store i32 %105, ptr %35, align 4
  %106 = load i32, ptr %32, align 4
  %107 = load i32, ptr %34, align 4
  %108 = add nsw i32 %106, %107
  store i32 %108, ptr %36, align 4
  %109 = load i32, ptr %33, align 4
  %110 = load i32, ptr %35, align 4
  %111 = add nsw i32 %109, %110
  store i32 %111, ptr %37, align 4
  %112 = load i32, ptr %32, align 4
  %113 = load i32, ptr %17, align 4
  %114 = icmp slt i32 %112, %113
  br i1 %114, label %115, label %124

115:                                              ; preds = %75
  %116 = load i32, ptr %17, align 4
  %117 = load i32, ptr %32, align 4
  %118 = sub nsw i32 %116, %117
  %119 = mul nsw i32 %118, 1
  %120 = load ptr, ptr %30, align 8
  %121 = sext i32 %119 to i64
  %122 = getelementptr inbounds i8, ptr %120, i64 %121
  store ptr %122, ptr %30, align 8
  %123 = load i32, ptr %17, align 4
  store i32 %123, ptr %32, align 4
  br label %124

124:                                              ; preds = %115, %75
  %125 = load i32, ptr %33, align 4
  %126 = load i32, ptr %18, align 4
  %127 = icmp slt i32 %125, %126
  br i1 %127, label %128, label %138

128:                                              ; preds = %124
  %129 = load i32, ptr %18, align 4
  %130 = load i32, ptr %33, align 4
  %131 = sub nsw i32 %129, %130
  %132 = load i32, ptr %31, align 4
  %133 = mul nsw i32 %131, %132
  %134 = load ptr, ptr %30, align 8
  %135 = sext i32 %133 to i64
  %136 = getelementptr inbounds i8, ptr %134, i64 %135
  store ptr %136, ptr %30, align 8
  %137 = load i32, ptr %18, align 4
  store i32 %137, ptr %33, align 4
  br label %138

138:                                              ; preds = %128, %124
  %139 = load i32, ptr %36, align 4
  %140 = load i32, ptr %19, align 4
  %141 = icmp sgt i32 %139, %140
  br i1 %141, label %142, label %144

142:                                              ; preds = %138
  %143 = load i32, ptr %19, align 4
  store i32 %143, ptr %36, align 4
  br label %144

144:                                              ; preds = %142, %138
  %145 = load i32, ptr %37, align 4
  %146 = load i32, ptr %20, align 4
  %147 = icmp sgt i32 %145, %146
  br i1 %147, label %148, label %150

148:                                              ; preds = %144
  %149 = load i32, ptr %20, align 4
  store i32 %149, ptr %37, align 4
  br label %150

150:                                              ; preds = %148, %144
  %151 = load i32, ptr %36, align 4
  %152 = load i32, ptr %32, align 4
  %153 = icmp sle i32 %151, %152
  br i1 %153, label %158, label %154

154:                                              ; preds = %150
  %155 = load i32, ptr %37, align 4
  %156 = load i32, ptr %33, align 4
  %157 = icmp sle i32 %155, %156
  br i1 %157, label %158, label %159

158:                                              ; preds = %154, %150
  br label %309

159:                                              ; preds = %154
  %160 = load i32, ptr %36, align 4
  %161 = load i32, ptr %32, align 4
  %162 = sub nsw i32 %160, %161
  store i32 %162, ptr %34, align 4
  %163 = load i32, ptr %37, align 4
  %164 = load i32, ptr %33, align 4
  %165 = sub nsw i32 %163, %164
  store i32 %165, ptr %35, align 4
  %166 = load ptr, ptr %12, align 8
  %167 = getelementptr inbounds %struct.SurfaceDataRasInfo, ptr %166, i32 0, i32 1
  %168 = load ptr, ptr %167, align 8
  %169 = ptrtoint ptr %168 to i64
  %170 = load i32, ptr %33, align 4
  %171 = sext i32 %170 to i64
  %172 = load i32, ptr %24, align 4
  %173 = sext i32 %172 to i64
  %174 = mul nsw i64 %171, %173
  %175 = load i32, ptr %32, align 4
  %176 = sext i32 %175 to i64
  %177 = mul nsw i64 %176, 4
  %178 = add nsw i64 %174, %177
  %179 = add nsw i64 %169, %178
  %180 = inttoptr i64 %179 to ptr
  store ptr %180, ptr %25, align 8
  br label %181

181:                                              ; preds = %304, %159
  store i32 0, ptr %38, align 4
  br label %182

182:                                              ; preds = %288, %181
  br label %183

183:                                              ; preds = %182
  %184 = load ptr, ptr %30, align 8
  %185 = load i32, ptr %38, align 4
  %186 = sext i32 %185 to i64
  %187 = getelementptr inbounds i8, ptr %184, i64 %186
  %188 = load i8, ptr %187, align 1
  %189 = zext i8 %188 to i32
  store i32 %189, ptr %42, align 4
  %190 = load i32, ptr %42, align 4
  %191 = icmp ne i32 %190, 0
  br i1 %191, label %192, label %286

192:                                              ; preds = %183
  %193 = load i32, ptr %42, align 4
  %194 = icmp slt i32 %193, 255
  br i1 %194, label %195, label %279

195:                                              ; preds = %192
  %196 = load i32, ptr %42, align 4
  %197 = sub nsw i32 255, %196
  store i32 %197, ptr %43, align 4
  br label %198

198:                                              ; preds = %195
  %199 = load ptr, ptr %25, align 8
  %200 = load i32, ptr %38, align 4
  %201 = sext i32 %200 to i64
  %202 = getelementptr inbounds i32, ptr %199, i64 %201
  %203 = load i32, ptr %202, align 4
  store i32 %203, ptr %44, align 4
  br label %204

204:                                              ; preds = %198
  %205 = load i32, ptr %44, align 4
  %206 = and i32 %205, 255
  store i32 %206, ptr %41, align 4
  %207 = load i32, ptr %44, align 4
  %208 = ashr i32 %207, 8
  %209 = and i32 %208, 255
  store i32 %209, ptr %40, align 4
  %210 = load i32, ptr %44, align 4
  %211 = ashr i32 %210, 16
  %212 = and i32 %211, 255
  store i32 %212, ptr %39, align 4
  br label %213

213:                                              ; preds = %204
  br label %214

214:                                              ; preds = %213
  br label %215

215:                                              ; preds = %214
  %216 = load i32, ptr %43, align 4
  %217 = sext i32 %216 to i64
  %218 = getelementptr inbounds [256 x [256 x i8]], ptr @mul8table, i64 0, i64 %217
  %219 = load i32, ptr %39, align 4
  %220 = sext i32 %219 to i64
  %221 = getelementptr inbounds [256 x i8], ptr %218, i64 0, i64 %220
  %222 = load i8, ptr %221, align 1
  %223 = zext i8 %222 to i32
  %224 = load i32, ptr %42, align 4
  %225 = sext i32 %224 to i64
  %226 = getelementptr inbounds [256 x [256 x i8]], ptr @mul8table, i64 0, i64 %225
  %227 = load i32, ptr %27, align 4
  %228 = sext i32 %227 to i64
  %229 = getelementptr inbounds [256 x i8], ptr %226, i64 0, i64 %228
  %230 = load i8, ptr %229, align 1
  %231 = zext i8 %230 to i32
  %232 = add nsw i32 %223, %231
  store i32 %232, ptr %39, align 4
  %233 = load i32, ptr %43, align 4
  %234 = sext i32 %233 to i64
  %235 = getelementptr inbounds [256 x [256 x i8]], ptr @mul8table, i64 0, i64 %234
  %236 = load i32, ptr %40, align 4
  %237 = sext i32 %236 to i64
  %238 = getelementptr inbounds [256 x i8], ptr %235, i64 0, i64 %237
  %239 = load i8, ptr %238, align 1
  %240 = zext i8 %239 to i32
  %241 = load i32, ptr %42, align 4
  %242 = sext i32 %241 to i64
  %243 = getelementptr inbounds [256 x [256 x i8]], ptr @mul8table, i64 0, i64 %242
  %244 = load i32, ptr %28, align 4
  %245 = sext i32 %244 to i64
  %246 = getelementptr inbounds [256 x i8], ptr %243, i64 0, i64 %245
  %247 = load i8, ptr %246, align 1
  %248 = zext i8 %247 to i32
  %249 = add nsw i32 %240, %248
  store i32 %249, ptr %40, align 4
  %250 = load i32, ptr %43, align 4
  %251 = sext i32 %250 to i64
  %252 = getelementptr inbounds [256 x [256 x i8]], ptr @mul8table, i64 0, i64 %251
  %253 = load i32, ptr %41, align 4
  %254 = sext i32 %253 to i64
  %255 = getelementptr inbounds [256 x i8], ptr %252, i64 0, i64 %254
  %256 = load i8, ptr %255, align 1
  %257 = zext i8 %256 to i32
  %258 = load i32, ptr %42, align 4
  %259 = sext i32 %258 to i64
  %260 = getelementptr inbounds [256 x [256 x i8]], ptr @mul8table, i64 0, i64 %259
  %261 = load i32, ptr %29, align 4
  %262 = sext i32 %261 to i64
  %263 = getelementptr inbounds [256 x i8], ptr %260, i64 0, i64 %262
  %264 = load i8, ptr %263, align 1
  %265 = zext i8 %264 to i32
  %266 = add nsw i32 %257, %265
  store i32 %266, ptr %41, align 4
  br label %267

267:                                              ; preds = %215
  %268 = load i32, ptr %39, align 4
  %269 = shl i32 %268, 8
  %270 = load i32, ptr %40, align 4
  %271 = or i32 %269, %270
  %272 = shl i32 %271, 8
  %273 = load i32, ptr %41, align 4
  %274 = or i32 %272, %273
  %275 = load ptr, ptr %25, align 8
  %276 = load i32, ptr %38, align 4
  %277 = sext i32 %276 to i64
  %278 = getelementptr inbounds i32, ptr %275, i64 %277
  store i32 %274, ptr %278, align 4
  br label %285

279:                                              ; preds = %192
  %280 = load i32, ptr %15, align 4
  %281 = load ptr, ptr %25, align 8
  %282 = load i32, ptr %38, align 4
  %283 = sext i32 %282 to i64
  %284 = getelementptr inbounds i32, ptr %281, i64 %283
  store i32 %280, ptr %284, align 4
  br label %285

285:                                              ; preds = %279, %267
  br label %286

286:                                              ; preds = %285, %183
  br label %287

287:                                              ; preds = %286
  br label %288

288:                                              ; preds = %287
  %289 = load i32, ptr %38, align 4
  %290 = add nsw i32 %289, 1
  store i32 %290, ptr %38, align 4
  %291 = load i32, ptr %34, align 4
  %292 = icmp slt i32 %290, %291
  br i1 %292, label %182, label %293, !llvm.loop !49

293:                                              ; preds = %288
  %294 = load ptr, ptr %25, align 8
  %295 = ptrtoint ptr %294 to i64
  %296 = load i32, ptr %24, align 4
  %297 = sext i32 %296 to i64
  %298 = add nsw i64 %295, %297
  %299 = inttoptr i64 %298 to ptr
  store ptr %299, ptr %25, align 8
  %300 = load i32, ptr %31, align 4
  %301 = load ptr, ptr %30, align 8
  %302 = sext i32 %300 to i64
  %303 = getelementptr inbounds i8, ptr %301, i64 %302
  store ptr %303, ptr %30, align 8
  br label %304

304:                                              ; preds = %293
  %305 = load i32, ptr %35, align 4
  %306 = add nsw i32 %305, -1
  store i32 %306, ptr %35, align 4
  %307 = icmp sgt i32 %306, 0
  br i1 %307, label %181, label %308, !llvm.loop !50

308:                                              ; preds = %304
  br label %309

309:                                              ; preds = %308, %158, %74
  %310 = load i32, ptr %23, align 4
  %311 = add nsw i32 %310, 1
  store i32 %311, ptr %23, align 4
  br label %61, !llvm.loop !51

312:                                              ; preds = %61
  ret void
}